target datalayout = "e-m:e-p270:32:32-p271:32:32-p272:64:64-i64:64-i128:128-f80:128-n8:16:32:64-S128"
target triple = "x86_64-pc-linux-gnu"

%"struct.Luau::CodeGen::X64::RegisterX64" = type { i8 }
%"class.Luau::CodeGen::X64::AssemblyBuilderX64" = type <{ %"class.std::vector", %"class.std::vector", %"class.std::__cxx11::basic_string", i8, [3 x i8], i32, i32, [4 x i8], %"class.std::vector.3", %"class.std::vector.8", %"class.Luau::DenseHashMap", %"class.Luau::DenseHashMap.13", i8, [7 x i8], i64, ptr, ptr, i32, [4 x i8] }>
%"class.std::vector" = type { %"struct.std::_Vector_base" }
%"struct.std::_Vector_base" = type { %"struct.std::_Vector_base<unsigned char, std::allocator<unsigned char>>::_Vector_impl" }
%"struct.std::_Vector_base<unsigned char, std::allocator<unsigned char>>::_Vector_impl" = type { %"struct.std::_Vector_base<unsigned char, std::allocator<unsigned char>>::_Vector_impl_data" }
%"struct.std::_Vector_base<unsigned char, std::allocator<unsigned char>>::_Vector_impl_data" = type { ptr, ptr, ptr }
%"class.std::__cxx11::basic_string" = type { %"struct.std::__cxx11::basic_string<char>::_Alloc_hider", i64, %union.anon }
%"struct.std::__cxx11::basic_string<char>::_Alloc_hider" = type { ptr }
%union.anon = type { i64, [8 x i8] }
%"class.std::vector.3" = type { %"struct.std::_Vector_base.4" }
%"struct.std::_Vector_base.4" = type { %"struct.std::_Vector_base<Luau::CodeGen::Label, std::allocator<Luau::CodeGen::Label>>::_Vector_impl" }
%"struct.std::_Vector_base<Luau::CodeGen::Label, std::allocator<Luau::CodeGen::Label>>::_Vector_impl" = type { %"struct.std::_Vector_base<Luau::CodeGen::Label, std::allocator<Luau::CodeGen::Label>>::_Vector_impl_data" }
%"struct.std::_Vector_base<Luau::CodeGen::Label, std::allocator<Luau::CodeGen::Label>>::_Vector_impl_data" = type { ptr, ptr, ptr }
%"class.std::vector.8" = type { %"struct.std::_Vector_base.9" }
%"struct.std::_Vector_base.9" = type { %"struct.std::_Vector_base<unsigned int, std::allocator<unsigned int>>::_Vector_impl" }
%"struct.std::_Vector_base<unsigned int, std::allocator<unsigned int>>::_Vector_impl" = type { %"struct.std::_Vector_base<unsigned int, std::allocator<unsigned int>>::_Vector_impl_data" }
%"struct.std::_Vector_base<unsigned int, std::allocator<unsigned int>>::_Vector_impl_data" = type { ptr, ptr, ptr }
%"class.Luau::DenseHashMap" = type { %"class.Luau::detail::DenseHashTable" }
%"class.Luau::detail::DenseHashTable" = type <{ ptr, i64, i64, i32, [4 x i8] }>
%"class.Luau::DenseHashMap.13" = type { %"class.Luau::detail::DenseHashTable.14" }
%"class.Luau::detail::DenseHashTable.14" = type <{ ptr, i64, i64, i64, [8 x i8] }>
%"struct.Luau::CodeGen::X64::OperandX64" = type { i8, %"struct.Luau::CodeGen::X64::RegisterX64", %"struct.Luau::CodeGen::X64::RegisterX64", i8, i32 }

@_ZN4Luau7CodeGen3X64L5noregE = internal constant %"struct.Luau::CodeGen::X64::RegisterX64" { i8 -128 }, align 1
@_ZN4Luau7CodeGen3X64L3ripE = internal constant %"struct.Luau::CodeGen::X64::RegisterX64" zeroinitializer, align 1

; Function Attrs: mustprogress nounwind uwtable
define linkonce_odr dso_local void @_ZN4Luau7CodeGen3X6410OperandX64C2ENS1_7SizeX64ENS1_11RegisterX64EhS4_i(ptr noundef nonnull align 4 dereferenceable(8) %0, i8 noundef zeroext %1, i8 %2, i8 noundef zeroext %3, i8 %4, i32 noundef %5) unnamed_addr #1 comdat align 2 {
  %7 = alloca %"struct.Luau::CodeGen::X64::RegisterX64", align 1
  %8 = alloca %"struct.Luau::CodeGen::X64::RegisterX64", align 1
  %9 = alloca ptr, align 8
  %10 = alloca i8, align 1
  %11 = alloca i8, align 1
  %12 = alloca i32, align 4
  %13 = getelementptr inbounds nuw %"struct.Luau::CodeGen::X64::RegisterX64", ptr %7, i32 0, i32 0
  store i8 %2, ptr %13, align 1
  %14 = getelementptr inbounds nuw %"struct.Luau::CodeGen::X64::RegisterX64", ptr %8, i32 0, i32 0
  store i8 %4, ptr %14, align 1
  store ptr %0, ptr %9, align 8, !tbaa !90
  store i8 %1, ptr %10, align 1, !tbaa !85
  store i8 %3, ptr %11, align 1, !tbaa !79
  store i32 %5, ptr %12, align 4, !tbaa !48
  %15 = load ptr, ptr %9, align 8
  %16 = getelementptr inbounds nuw %"struct.Luau::CodeGen::X64::OperandX64", ptr %15, i32 0, i32 0
  store i8 1, ptr %16, align 4, !tbaa !81
  %17 = getelementptr inbounds nuw %"struct.Luau::CodeGen::X64::OperandX64", ptr %15, i32 0, i32 1
  call void @llvm.memcpy.p0.p0.i64(ptr align 1 %17, ptr align 1 %7, i64 1, i1 false), !tbaa.struct !86
  %18 = getelementptr inbounds nuw %"struct.Luau::CodeGen::X64::OperandX64", ptr %15, i32 0, i32 2
  call void @llvm.memcpy.p0.p0.i64(ptr align 2 %18, ptr align 1 %8, i64 1, i1 false), !tbaa.struct !86
  %19 = getelementptr inbounds nuw %"struct.Luau::CodeGen::X64::OperandX64", ptr %15, i32 0, i32 3
  %20 = load i8, ptr %10, align 1, !tbaa !85
  %21 = load i8, ptr %19, align 1
  %22 = and i8 %20, 15
  %23 = and i8 %21, -16
  %24 = or i8 %23, %22
  store i8 %24, ptr %19, align 1
  %25 = getelementptr inbounds nuw %"struct.Luau::CodeGen::X64::OperandX64", ptr %15, i32 0, i32 3
  %26 = load i8, ptr %11, align 1, !tbaa !79
  %27 = load i8, ptr %25, align 1
  %28 = and i8 %26, 15
  %29 = shl i8 %28, 4
  %30 = and i8 %27, 15
  %31 = or i8 %30, %29
  store i8 %31, ptr %25, align 1
  %32 = getelementptr inbounds nuw %"struct.Luau::CodeGen::X64::OperandX64", ptr %15, i32 0, i32 4
  %33 = load i32, ptr %12, align 4, !tbaa !48
  store i32 %33, ptr %32, align 4, !tbaa !87
  ret void
}

; Function Attrs: mustprogress nounwind uwtable
define linkonce_odr dso_local noundef i64 @_ZNKSt6vectorIhSaIhEE4sizeEv(ptr noundef nonnull align 8 dereferenceable(24) %0) #1 comdat align 2 {
  %2 = alloca ptr, align 8
  store ptr %0, ptr %2, align 8, !tbaa !55
  %3 = load ptr, ptr %2, align 8
  %4 = getelementptr inbounds nuw %"struct.std::_Vector_base", ptr %3, i32 0, i32 0
  %5 = getelementptr inbounds nuw %"struct.std::_Vector_base<unsigned char, std::allocator<unsigned char>>::_Vector_impl_data", ptr %4, i32 0, i32 1
  %6 = load ptr, ptr %5, align 8, !tbaa !71
  %7 = getelementptr inbounds nuw %"struct.std::_Vector_base", ptr %3, i32 0, i32 0
  %8 = getelementptr inbounds nuw %"struct.std::_Vector_base<unsigned char, std::allocator<unsigned char>>::_Vector_impl_data", ptr %7, i32 0, i32 0
  %9 = load ptr, ptr %8, align 8, !tbaa !70
  %10 = ptrtoint ptr %6 to i64
  %11 = ptrtoint ptr %9 to i64
  %12 = sub i64 %10, %11
  ret i64 %12
}

; Function Attrs: inlinehint mustprogress nounwind uwtable
define linkonce_odr dso_local noundef ptr @_Z8writef64Phd(ptr noundef %0, double noundef %1) #3 comdat {
  %3 = alloca ptr, align 8
  %4 = alloca double, align 8
  store ptr %0, ptr %3, align 8, !tbaa !80
  store double %1, ptr %4, align 8, !tbaa !117
  %5 = load ptr, ptr %3, align 8, !tbaa !80
  call void @llvm.memcpy.p0.p0.i64(ptr align 1 %5, ptr align 8 %4, i64 8, i1 false)
  %6 = load ptr, ptr %3, align 8, !tbaa !80
  %7 = getelementptr inbounds nuw i8, ptr %6, i64 8
  ret ptr %7
}

; Function Attrs: mustprogress nounwind uwtable
define linkonce_odr dso_local noundef nonnull align 1 dereferenceable(1) ptr @_ZNSt6vectorIhSaIhEEixEm(ptr noundef nonnull align 8 dereferenceable(24) %0, i64 noundef %1) #1 comdat align 2 {
  %3 = alloca ptr, align 8
  %4 = alloca i64, align 8
  store ptr %0, ptr %3, align 8, !tbaa !55
  store i64 %1, ptr %4, align 8, !tbaa !49
  %5 = load ptr, ptr %3, align 8
  %6 = getelementptr inbounds nuw %"struct.std::_Vector_base", ptr %5, i32 0, i32 0
  %7 = getelementptr inbounds nuw %"struct.std::_Vector_base<unsigned char, std::allocator<unsigned char>>::_Vector_impl_data", ptr %6, i32 0, i32 0
  %8 = load ptr, ptr %7, align 8, !tbaa !70
  %9 = load i64, ptr %4, align 8, !tbaa !49
  %10 = getelementptr inbounds nuw i8, ptr %8, i64 %9
  ret ptr %10
}

; Function Attrs: mustprogress uwtable
define dso_local noundef i64 @_ZN4Luau7CodeGen3X6418AssemblyBuilderX6412allocateDataEmm(ptr noundef nonnull align 8 dereferenceable(252) %0, i64 noundef %1, i64 noundef %2) #0 align 2 {
  %4 = alloca ptr, align 8
  %5 = alloca i64, align 8
  %6 = alloca i64, align 8
  %7 = alloca i64, align 8
  store ptr %0, ptr %4, align 8, !tbaa !4
  store i64 %1, ptr %5, align 8, !tbaa !49
  store i64 %2, ptr %6, align 8, !tbaa !49
  %8 = load ptr, ptr %4, align 8
  %9 = getelementptr inbounds nuw %"class.Luau::CodeGen::X64::AssemblyBuilderX64", ptr %8, i32 0, i32 14
  %10 = load i64, ptr %9, align 8, !tbaa !51
  %11 = load i64, ptr %5, align 8, !tbaa !49
  %12 = icmp ult i64 %10, %11
  br i1 %12, label %13, label %33

13:                                               ; preds = %3
  call void @llvm.lifetime.start.p0(i64 8, ptr %7) #17
  %14 = getelementptr inbounds nuw %"class.Luau::CodeGen::X64::AssemblyBuilderX64", ptr %8, i32 0, i32 0
  %15 = call noundef i64 @_ZNKSt6vectorIhSaIhEE4sizeEv(ptr noundef nonnull align 8 dereferenceable(24) %14) #17
  store i64 %15, ptr %7, align 8, !tbaa !49
  %16 = getelementptr inbounds nuw %"class.Luau::CodeGen::X64::AssemblyBuilderX64", ptr %8, i32 0, i32 0
  %17 = getelementptr inbounds nuw %"class.Luau::CodeGen::X64::AssemblyBuilderX64", ptr %8, i32 0, i32 0
  %18 = call noundef i64 @_ZNKSt6vectorIhSaIhEE4sizeEv(ptr noundef nonnull align 8 dereferenceable(24) %17) #17
  %19 = mul i64 %18, 2
  call void @_ZNSt6vectorIhSaIhEE6resizeEm(ptr noundef nonnull align 8 dereferenceable(24) %16, i64 noundef %19)
  %20 = getelementptr inbounds nuw %"class.Luau::CodeGen::X64::AssemblyBuilderX64", ptr %8, i32 0, i32 0
  %21 = load i64, ptr %7, align 8, !tbaa !49
  %22 = call noundef nonnull align 1 dereferenceable(1) ptr @_ZNSt6vectorIhSaIhEEixEm(ptr noundef nonnull align 8 dereferenceable(24) %20, i64 noundef %21) #17
  %23 = getelementptr inbounds nuw %"class.Luau::CodeGen::X64::AssemblyBuilderX64", ptr %8, i32 0, i32 0
  %24 = call noundef nonnull align 1 dereferenceable(1) ptr @_ZNSt6vectorIhSaIhEEixEm(ptr noundef nonnull align 8 dereferenceable(24) %23, i64 noundef 0) #17
  %25 = load i64, ptr %7, align 8, !tbaa !49
  call void @llvm.memcpy.p0.p0.i64(ptr align 1 %22, ptr align 1 %24, i64 %25, i1 false)
  %26 = getelementptr inbounds nuw %"class.Luau::CodeGen::X64::AssemblyBuilderX64", ptr %8, i32 0, i32 0
  %27 = call noundef nonnull align 1 dereferenceable(1) ptr @_ZNSt6vectorIhSaIhEEixEm(ptr noundef nonnull align 8 dereferenceable(24) %26, i64 noundef 0) #17
  %28 = load i64, ptr %7, align 8, !tbaa !49
  call void @llvm.memset.p0.i64(ptr align 1 %27, i8 0, i64 %28, i1 false)
  %29 = load i64, ptr %7, align 8, !tbaa !49
  %30 = getelementptr inbounds nuw %"class.Luau::CodeGen::X64::AssemblyBuilderX64", ptr %8, i32 0, i32 14
  %31 = load i64, ptr %30, align 8, !tbaa !51
  %32 = add i64 %31, %29
  store i64 %32, ptr %30, align 8, !tbaa !51
  call void @llvm.lifetime.end.p0(i64 8, ptr %7) #17
  br label %33

33:                                               ; preds = %13, %3
  %34 = getelementptr inbounds nuw %"class.Luau::CodeGen::X64::AssemblyBuilderX64", ptr %8, i32 0, i32 14
  %35 = load i64, ptr %34, align 8, !tbaa !51
  %36 = load i64, ptr %5, align 8, !tbaa !49
  %37 = sub i64 %35, %36
  %38 = load i64, ptr %6, align 8, !tbaa !49
  %39 = sub i64 %38, 1
  %40 = xor i64 %39, -1
  %41 = and i64 %37, %40
  %42 = getelementptr inbounds nuw %"class.Luau::CodeGen::X64::AssemblyBuilderX64", ptr %8, i32 0, i32 14
  store i64 %41, ptr %42, align 8, !tbaa !51
  %43 = getelementptr inbounds nuw %"class.Luau::CodeGen::X64::AssemblyBuilderX64", ptr %8, i32 0, i32 14
  %44 = load i64, ptr %43, align 8, !tbaa !51
  ret i64 %44
}

; Function Attrs: mustprogress uwtable
define dso_local i64 @_ZN4Luau7CodeGen3X6418AssemblyBuilderX645f64x2Edd(ptr noundef nonnull align 8 dereferenceable(252) %0, double noundef %1, double noundef %2) #0 align 2 {
  %4 = alloca %"struct.Luau::CodeGen::X64::OperandX64", align 4
  %5 = alloca ptr, align 8
  %6 = alloca double, align 8
  %7 = alloca double, align 8
  %8 = alloca i64, align 8
  %9 = alloca %"struct.Luau::CodeGen::X64::RegisterX64", align 1
  %10 = alloca %"struct.Luau::CodeGen::X64::RegisterX64", align 1
  store ptr %0, ptr %5, align 8, !tbaa !4
  store double %1, ptr %6, align 8, !tbaa !117
  store double %2, ptr %7, align 8, !tbaa !117
  %11 = load ptr, ptr %5, align 8
  call void @llvm.lifetime.start.p0(i64 8, ptr %8) #17
  %12 = call noundef i64 @_ZN4Luau7CodeGen3X6418AssemblyBuilderX6412allocateDataEmm(ptr noundef nonnull align 8 dereferenceable(252) %11, i64 noundef 16, i64 noundef 16)
  store i64 %12, ptr %8, align 8, !tbaa !49
  %13 = getelementptr inbounds nuw %"class.Luau::CodeGen::X64::AssemblyBuilderX64", ptr %11, i32 0, i32 0
  %14 = load i64, ptr %8, align 8, !tbaa !49
  %15 = call noundef nonnull align 1 dereferenceable(1) ptr @_ZNSt6vectorIhSaIhEEixEm(ptr noundef nonnull align 8 dereferenceable(24) %13, i64 noundef %14) #17
  %16 = load double, ptr %6, align 8, !tbaa !117
  %17 = call noundef ptr @_Z8writef64Phd(ptr noundef %15, double noundef %16)
  %18 = getelementptr inbounds nuw %"class.Luau::CodeGen::X64::AssemblyBuilderX64", ptr %11, i32 0, i32 0
  %19 = load i64, ptr %8, align 8, !tbaa !49
  %20 = add i64 %19, 8
  %21 = call noundef nonnull align 1 dereferenceable(1) ptr @_ZNSt6vectorIhSaIhEEixEm(ptr noundef nonnull align 8 dereferenceable(24) %18, i64 noundef %20) #17
  %22 = load double, ptr %7, align 8, !tbaa !117
  %23 = call noundef ptr @_Z8writef64Phd(ptr noundef %21, double noundef %22)
  call void @llvm.memcpy.p0.p0.i64(ptr align 1 %9, ptr align 1 @_ZN4Luau7CodeGen3X64L5noregE, i64 1, i1 false), !tbaa.struct !86
  call void @llvm.memcpy.p0.p0.i64(ptr align 1 %10, ptr align 1 @_ZN4Luau7CodeGen3X64L3ripE, i64 1, i1 false), !tbaa.struct !86
  %24 = load i64, ptr %8, align 8, !tbaa !49
  %25 = getelementptr inbounds nuw %"class.Luau::CodeGen::X64::AssemblyBuilderX64", ptr %11, i32 0, i32 0
  %26 = call noundef i64 @_ZNKSt6vectorIhSaIhEE4sizeEv(ptr noundef nonnull align 8 dereferenceable(24) %25) #17
  %27 = sub i64 %24, %26
  %28 = trunc i64 %27 to i32
  %29 = getelementptr inbounds nuw %"struct.Luau::CodeGen::X64::RegisterX64", ptr %9, i32 0, i32 0
  %30 = load i8, ptr %29, align 1
  %31 = getelementptr inbounds nuw %"struct.Luau::CodeGen::X64::RegisterX64", ptr %10, i32 0, i32 0
  %32 = load i8, ptr %31, align 1
  call void @_ZN4Luau7CodeGen3X6410OperandX64C2ENS1_7SizeX64ENS1_11RegisterX64EhS4_i(ptr noundef nonnull align 4 dereferenceable(8) %4, i8 noundef zeroext 5, i8 %30, i8 noundef zeroext 1, i8 %32, i32 noundef %28)
  call void @llvm.lifetime.end.p0(i64 8, ptr %8) #17
  %33 = load i64, ptr %4, align 4
  ret i64 %33
}