; Function Attrs: mustprogress uwtable
define dso_local range(i64 352354305, -3758096384) i64 @_ZN4Luau7CodeGen3X6418AssemblyBuilderX645f64x2Edd(ptr noundef nonnull align 8 dereferenceable(252) %0, double noundef %1, double noundef %2) local_unnamed_addr #0 align 2 {
  %4 = getelementptr inbounds nuw i8, ptr %0, i64 224
  %5 = load i64, ptr %4, align 8, !tbaa !50
  %6 = icmp ult i64 %5, 16
  br i1 %6, label %7, label %_ZN4Luau7CodeGen3X6418AssemblyBuilderX6412allocateDataEmm.exit

7:                                                ; preds = %3
  %8 = getelementptr inbounds nuw i8, ptr %0, i64 8
  %9 = load ptr, ptr %8, align 8, !tbaa !48
  %10 = load ptr, ptr %0, align 8, !tbaa !49
  %11 = ptrtoint ptr %9 to i64
  %12 = ptrtoint ptr %10 to i64
  %13 = sub i64 %11, %12
  %14 = shl i64 %13, 1
  tail call void @_ZNSt6vectorIhSaIhEE6resizeEm(ptr noundef nonnull align 8 dereferenceable(252) %0, i64 noundef %14)
  %15 = load ptr, ptr %0, align 8, !tbaa !49
  %16 = getelementptr inbounds nuw i8, ptr %15, i64 %13
  tail call void @llvm.memcpy.p0.p0.i64(ptr nonnull align 1 %16, ptr nonnull align 1 %15, i64 %13, i1 false)
  %17 = load ptr, ptr %0, align 8, !tbaa !49
  tail call void @llvm.memset.p0.i64(ptr nonnull align 1 %17, i8 0, i64 %13, i1 false)
  %18 = load i64, ptr %4, align 8, !tbaa !50
  %19 = add i64 %18, %13
  br label %_ZN4Luau7CodeGen3X6418AssemblyBuilderX6412allocateDataEmm.exit

_ZN4Luau7CodeGen3X6418AssemblyBuilderX6412allocateDataEmm.exit: ; preds = %3, %7
  %20 = phi i64 [ %19, %7 ], [ %5, %3 ]
  %21 = and i64 %20, -16
  %22 = add i64 %21, -16
  store i64 %22, ptr %4, align 8, !tbaa !50
  %23 = load ptr, ptr %0, align 8, !tbaa !49
  %24 = getelementptr inbounds nuw i8, ptr %23, i64 %22
  store double %1, ptr %24, align 1
  %25 = load ptr, ptr %0, align 8, !tbaa !49
  %26 = getelementptr i8, ptr %25, i64 %21
  %27 = getelementptr i8, ptr %26, i64 -8
  store double %2, ptr %27, align 1
  %28 = getelementptr inbounds nuw i8, ptr %0, i64 8
  %29 = load ptr, ptr %28, align 8, !tbaa !48
  %30 = load ptr, ptr %0, align 8, !tbaa !49
  %31 = ptrtoint ptr %29 to i64
  %32 = ptrtoint ptr %30 to i64
  %.neg = sub i64 %22, %31
  %33 = add i64 %.neg, %32
  %.sroa.5.0.insert.ext = shl i64 %33, 32
  %.sroa.0.0.insert.insert = or disjoint i64 %.sroa.5.0.insert.ext, 352354305
  ret i64 %.sroa.0.0.insert.insert
}